; Function Attrs: nounwind uwtable
define ptr @l_Array_mapMUnsafe_map___at_Lean_Server_FileWorker_runLakeSetupFile___spec__1(i64 noundef %0, i64 noundef %1, ptr noundef %2) local_unnamed_addr #0 {
  %.not48 = icmp ult i64 %1, %0
  br i1 %.not48, label %.lr.ph, label %._crit_edge

.lr.ph:                                           ; preds = %3, %65
  %.02350 = phi i64 [ %49, %65 ], [ %1, %3 ]
  %.02549 = phi ptr [ %.0.i.i35, %65 ], [ %2, %3 ]
  %4 = getelementptr inbounds nuw i8, ptr %.02549, i64 24
  %5 = getelementptr inbounds nuw [0 x ptr], ptr %4, i64 0, i64 %.02350
  %6 = load ptr, ptr %5, align 8, !tbaa !4
  %7 = ptrtoint ptr %6 to i64
  %8 = and i64 %7, 1
  %.not.i28 = icmp eq i64 %8, 0
  br i1 %.not.i28, label %9, label %lean_array_uget.exit

9:                                                ; preds = %.lr.ph
  %.val.i.i = load i32, ptr %6, align 4, !tbaa !8
  %10 = icmp sgt i32 %.val.i.i, 0
  br i1 %10, label %11, label %13, !prof !13

11:                                               ; preds = %9
  %12 = add nuw i32 %.val.i.i, 1
  store i32 %12, ptr %6, align 4, !tbaa !8
  br label %lean_array_uget.exit

13:                                               ; preds = %9
  %.not.i.i = icmp eq i32 %.val.i.i, 0
  br i1 %.not.i.i, label %lean_array_uget.exit, label %14

14:                                               ; preds = %13
  tail call void @lean_inc_ref_cold(ptr noundef nonnull %6) #5
  br label %lean_array_uget.exit

lean_array_uget.exit:                             ; preds = %.lr.ph, %11, %13, %14
  %.val.i.i29 = load i32, ptr %.02549, align 4, !tbaa !8
  %15 = icmp eq i32 %.val.i.i29, 1
  br i1 %15, label %lean_ensure_exclusive_array.exit.i, label %16

16:                                               ; preds = %lean_array_uget.exit
  %17 = tail call ptr @lean_copy_expand_array(ptr noundef nonnull %.02549, i1 noundef zeroext false) #5
  br label %lean_ensure_exclusive_array.exit.i

lean_ensure_exclusive_array.exit.i:               ; preds = %16, %lean_array_uget.exit
  %.0.i.i = phi ptr [ %17, %16 ], [ %.02549, %lean_array_uget.exit ]
  %18 = getelementptr inbounds nuw i8, ptr %.0.i.i, i64 24
  %19 = getelementptr inbounds nuw ptr, ptr %18, i64 %.02350
  %20 = load ptr, ptr %19, align 8, !tbaa !4
  %21 = ptrtoint ptr %20 to i64
  %22 = and i64 %21, 1
  %.not.i30 = icmp eq i64 %22, 0
  br i1 %.not.i30, label %23, label %lean_array_uset.exit

23:                                               ; preds = %lean_ensure_exclusive_array.exit.i
  %24 = load i32, ptr %20, align 4, !tbaa !8
  %25 = icmp sgt i32 %24, 1
  br i1 %25, label %26, label %28, !prof !13

26:                                               ; preds = %23
  %27 = add nsw i32 %24, -1
  store i32 %27, ptr %20, align 4, !tbaa !8
  br label %lean_array_uset.exit

28:                                               ; preds = %23
  %.not.i.i31 = icmp eq i32 %24, 0
  br i1 %.not.i.i31, label %lean_array_uset.exit, label %29

29:                                               ; preds = %28
  tail call void @lean_dec_ref_cold(ptr noundef nonnull %20) #5
  br label %lean_array_uset.exit

lean_array_uset.exit:                             ; preds = %lean_ensure_exclusive_array.exit.i, %26, %28, %29
  store ptr inttoptr (i64 1 to ptr), ptr %19, align 8, !tbaa !4
  %30 = getelementptr inbounds nuw i8, ptr %6, i64 8
  %31 = load ptr, ptr %30, align 8, !tbaa !4
  %32 = ptrtoint ptr %31 to i64
  %33 = and i64 %32, 1
  %.not46 = icmp eq i64 %33, 0
  br i1 %.not46, label %34, label %lean_inc.exit

34:                                               ; preds = %lean_array_uset.exit
  %.val.i = load i32, ptr %31, align 4, !tbaa !8
  %35 = icmp sgt i32 %.val.i, 0
  br i1 %35, label %36, label %38, !prof !13

36:                                               ; preds = %34
  %37 = add nuw i32 %.val.i, 1
  store i32 %37, ptr %31, align 4, !tbaa !8
  br label %lean_inc.exit

38:                                               ; preds = %34
  %.not.i32 = icmp eq i32 %.val.i, 0
  br i1 %.not.i32, label %lean_inc.exit, label %39

39:                                               ; preds = %38
  tail call void @lean_inc_ref_cold(ptr noundef nonnull %31) #5
  br label %lean_inc.exit

lean_inc.exit:                                    ; preds = %39, %38, %36, %lean_array_uset.exit
  br i1 %.not.i28, label %40, label %lean_dec.exit

40:                                               ; preds = %lean_inc.exit
  %41 = load i32, ptr %6, align 4, !tbaa !8
  %42 = icmp sgt i32 %41, 1
  br i1 %42, label %43, label %45, !prof !13

43:                                               ; preds = %40
  %44 = add nsw i32 %41, -1
  store i32 %44, ptr %6, align 4, !tbaa !8
  br label %lean_dec.exit

45:                                               ; preds = %40
  %.not.i = icmp eq i32 %41, 0
  br i1 %.not.i, label %lean_dec.exit, label %46

46:                                               ; preds = %45
  tail call void @lean_dec_ref_cold(ptr noundef nonnull %6) #5
  br label %lean_dec.exit

lean_dec.exit:                                    ; preds = %46, %45, %43, %lean_inc.exit
  %47 = load ptr, ptr @l_Array_mapMUnsafe_map___at_Lean_Server_FileWorker_runLakeSetupFile___spec__1___closed__1, align 8, !tbaa !4
  %48 = tail call ptr @l_Lean_Name_toString(ptr noundef %31, i8 noundef zeroext 1, ptr noundef %47) #5
  %49 = add nuw i64 %.02350, 1
  %.val.i.i33 = load i32, ptr %.0.i.i, align 4, !tbaa !8
  %50 = icmp eq i32 %.val.i.i33, 1
  br i1 %50, label %lean_ensure_exclusive_array.exit.i34, label %51

51:                                               ; preds = %lean_dec.exit
  %52 = tail call ptr @lean_copy_expand_array(ptr noundef nonnull %.0.i.i, i1 noundef zeroext false) #5
  br label %lean_ensure_exclusive_array.exit.i34

lean_ensure_exclusive_array.exit.i34:             ; preds = %51, %lean_dec.exit
  %.0.i.i35 = phi ptr [ %52, %51 ], [ %.0.i.i, %lean_dec.exit ]
  %53 = getelementptr inbounds nuw i8, ptr %.0.i.i35, i64 24
  %54 = getelementptr inbounds nuw ptr, ptr %53, i64 %.02350
  %55 = load ptr, ptr %54, align 8, !tbaa !4
  %56 = ptrtoint ptr %55 to i64
  %57 = and i64 %56, 1
  %.not.i36 = icmp eq i64 %57, 0
  br i1 %.not.i36, label %58, label %65

58:                                               ; preds = %lean_ensure_exclusive_array.exit.i34
  %59 = load i32, ptr %55, align 4, !tbaa !8
  %60 = icmp sgt i32 %59, 1
  br i1 %60, label %61, label %63, !prof !13

61:                                               ; preds = %58
  %62 = add nsw i32 %59, -1
  store i32 %62, ptr %55, align 4, !tbaa !8
  br label %65

63:                                               ; preds = %58
  %.not.i.i37 = icmp eq i32 %59, 0
  br i1 %.not.i.i37, label %65, label %64

64:                                               ; preds = %63
  tail call void @lean_dec_ref_cold(ptr noundef nonnull %55) #5
  br label %65

65:                                               ; preds = %64, %63, %61, %lean_ensure_exclusive_array.exit.i34
  store ptr %48, ptr %54, align 8, !tbaa !4
  %exitcond.not = icmp eq i64 %49, %0
  br i1 %exitcond.not, label %._crit_edge, label %.lr.ph

._crit_edge:                                      ; preds = %65, %3
  %.025.lcssa = phi ptr [ %2, %3 ], [ %.0.i.i35, %65 ]
  ret ptr %.025.lcssa
}